; Function Attrs: mustprogress nounwind uwtable
define internal fastcc void @_ZN12_GLOBAL__N_114VersionPrinter5printEv() unnamed_addr #0 align 2 {
entry:
  %call = tail call noundef nonnull align 8 dereferenceable(36) ptr @_ZN4llvh4outsEv() #27
  %OutBufEnd.i5.i = getelementptr inbounds i8, ptr %call, i64 16
  %0 = load ptr, ptr %OutBufEnd.i5.i, align 8
  %OutBufCur.i6.i = getelementptr inbounds i8, ptr %call, i64 24
  %1 = load ptr, ptr %OutBufCur.i6.i, align 8
  %sub.ptr.lhs.cast.i7.i = ptrtoint ptr %0 to i64
  %sub.ptr.rhs.cast.i8.i = ptrtoint ptr %1 to i64
  %sub.ptr.sub.i9.i = sub i64 %sub.ptr.lhs.cast.i7.i, %sub.ptr.rhs.cast.i8.i
  %cmp.i.i = icmp ult i64 %sub.ptr.sub.i9.i, 27
  br i1 %cmp.i.i, label %if.then.i.i, label %if.then4.i.i

if.then.i.i:                                      ; preds = %entry
  %call3.i.i = tail call noundef nonnull align 8 dereferenceable(36) ptr @_ZN4llvh11raw_ostream5writeEPKcm(ptr noundef nonnull align 8 dereferenceable(36) %call, ptr noundef nonnull @.str.112, i64 noundef 27) #27
  %.pre = load ptr, ptr %OutBufCur.i6.i, align 8
  br label %_ZN4llvh11raw_ostreamlsEPKc.exit

if.then4.i.i:                                     ; preds = %entry
  tail call void @llvm.memcpy.p0.p0.i64(ptr noundef nonnull align 1 dereferenceable(27) %1, ptr noundef nonnull align 1 dereferenceable(27) @.str.112, i64 27, i1 false)
  %2 = load ptr, ptr %OutBufCur.i6.i, align 8
  %add.ptr.i.i = getelementptr inbounds i8, ptr %2, i64 27
  store ptr %add.ptr.i.i, ptr %OutBufCur.i6.i, align 8
  br label %_ZN4llvh11raw_ostreamlsEPKc.exit

_ZN4llvh11raw_ostreamlsEPKc.exit:                 ; preds = %if.then.i.i, %if.then4.i.i
  %3 = phi ptr [ %.pre, %if.then.i.i ], [ %add.ptr.i.i, %if.then4.i.i ]
  %4 = load ptr, ptr %OutBufEnd.i5.i, align 8
  %sub.ptr.lhs.cast.i7.i8 = ptrtoint ptr %4 to i64
  %sub.ptr.rhs.cast.i8.i9 = ptrtoint ptr %3 to i64
  %sub.ptr.sub.i9.i10 = sub i64 %sub.ptr.lhs.cast.i7.i8, %sub.ptr.rhs.cast.i8.i9
  %cmp.i.i11 = icmp ult i64 %sub.ptr.sub.i9.i10, 4
  br i1 %cmp.i.i11, label %if.then.i.i17, label %if.then4.i.i14

if.then.i.i17:                                    ; preds = %_ZN4llvh11raw_ostreamlsEPKc.exit
  %call3.i.i18 = tail call noundef nonnull align 8 dereferenceable(36) ptr @_ZN4llvh11raw_ostream5writeEPKcm(ptr noundef nonnull align 8 dereferenceable(36) %call, ptr noundef nonnull @.str.113, i64 noundef 4) #27
  %OutBufCur.i6.i22.phi.trans.insert = getelementptr inbounds i8, ptr %call3.i.i18, i64 24
  %.pre1 = load ptr, ptr %OutBufCur.i6.i22.phi.trans.insert, align 8
  br label %_ZN4llvh11raw_ostreamlsEPKc.exit19

if.then4.i.i14:                                   ; preds = %_ZN4llvh11raw_ostreamlsEPKc.exit
  store i32 1213615180, ptr %3, align 1
  %5 = load ptr, ptr %OutBufCur.i6.i, align 8
  %add.ptr.i.i15 = getelementptr inbounds i8, ptr %5, i64 4
  store ptr %add.ptr.i.i15, ptr %OutBufCur.i6.i, align 8
  br label %_ZN4llvh11raw_ostreamlsEPKc.exit19

_ZN4llvh11raw_ostreamlsEPKc.exit19:               ; preds = %if.then.i.i17, %if.then4.i.i14
  %6 = phi ptr [ %.pre1, %if.then.i.i17 ], [ %add.ptr.i.i15, %if.then4.i.i14 ]
  %phi.call.i16 = phi ptr [ %call3.i.i18, %if.then.i.i17 ], [ %call, %if.then4.i.i14 ]
  %OutBufEnd.i5.i21 = getelementptr inbounds i8, ptr %phi.call.i16, i64 16
  %7 = load ptr, ptr %OutBufEnd.i5.i21, align 8
  %sub.ptr.lhs.cast.i7.i23 = ptrtoint ptr %7 to i64
  %sub.ptr.rhs.cast.i8.i24 = ptrtoint ptr %6 to i64
  %sub.ptr.sub.i9.i25 = sub i64 %sub.ptr.lhs.cast.i7.i23, %sub.ptr.rhs.cast.i8.i24
  %cmp.i.i26 = icmp ult i64 %sub.ptr.sub.i9.i25, 9
  br i1 %cmp.i.i26, label %if.then.i.i32, label %if.then4.i.i29

if.then.i.i32:                                    ; preds = %_ZN4llvh11raw_ostreamlsEPKc.exit19
  %call3.i.i33 = tail call noundef nonnull align 8 dereferenceable(36) ptr @_ZN4llvh11raw_ostream5writeEPKcm(ptr noundef nonnull align 8 dereferenceable(36) %phi.call.i16, ptr noundef nonnull @.str.114, i64 noundef 9) #27
  %OutBufCur.i6.i37.phi.trans.insert = getelementptr inbounds i8, ptr %call3.i.i33, i64 24
  %.pre2 = load ptr, ptr %OutBufCur.i6.i37.phi.trans.insert, align 8
  br label %_ZN4llvh11raw_ostreamlsEPKc.exit34

if.then4.i.i29:                                   ; preds = %_ZN4llvh11raw_ostreamlsEPKc.exit19
  %OutBufCur.i6.i22 = getelementptr inbounds i8, ptr %phi.call.i16, i64 24
  tail call void @llvm.memcpy.p0.p0.i64(ptr noundef nonnull align 1 dereferenceable(9) %6, ptr noundef nonnull align 1 dereferenceable(9) @.str.114, i64 9, i1 false)
  %8 = load ptr, ptr %OutBufCur.i6.i22, align 8
  %add.ptr.i.i30 = getelementptr inbounds i8, ptr %8, i64 9
  store ptr %add.ptr.i.i30, ptr %OutBufCur.i6.i22, align 8
  br label %_ZN4llvh11raw_ostreamlsEPKc.exit34

_ZN4llvh11raw_ostreamlsEPKc.exit34:               ; preds = %if.then.i.i32, %if.then4.i.i29
  %9 = phi ptr [ %.pre2, %if.then.i.i32 ], [ %add.ptr.i.i30, %if.then4.i.i29 ]
  %phi.call.i31 = phi ptr [ %call3.i.i33, %if.then.i.i32 ], [ %phi.call.i16, %if.then4.i.i29 ]
  %OutBufEnd.i5.i36 = getelementptr inbounds i8, ptr %phi.call.i31, i64 16
  %10 = load ptr, ptr %OutBufEnd.i5.i36, align 8
  %sub.ptr.lhs.cast.i7.i38 = ptrtoint ptr %10 to i64
  %sub.ptr.rhs.cast.i8.i39 = ptrtoint ptr %9 to i64
  %sub.ptr.sub.i9.i40 = sub i64 %sub.ptr.lhs.cast.i7.i38, %sub.ptr.rhs.cast.i8.i39
  %cmp.i.i41 = icmp ult i64 %sub.ptr.sub.i9.i40, 8
  br i1 %cmp.i.i41, label %if.then.i.i47, label %if.then4.i.i44

if.then.i.i47:                                    ; preds = %_ZN4llvh11raw_ostreamlsEPKc.exit34
  %call3.i.i48 = tail call noundef nonnull align 8 dereferenceable(36) ptr @_ZN4llvh11raw_ostream5writeEPKcm(ptr noundef nonnull align 8 dereferenceable(36) %phi.call.i31, ptr noundef nonnull @.str.115, i64 noundef 8) #27
  br label %_ZN4llvh11raw_ostreamlsEPKc.exit49

if.then4.i.i44:                                   ; preds = %_ZN4llvh11raw_ostreamlsEPKc.exit34
  %OutBufCur.i6.i37 = getelementptr inbounds i8, ptr %phi.call.i31, i64 24
  store i64 7959676042194464312, ptr %9, align 1
  %11 = load ptr, ptr %OutBufCur.i6.i37, align 8
  %add.ptr.i.i45 = getelementptr inbounds i8, ptr %11, i64 8
  store ptr %add.ptr.i.i45, ptr %OutBufCur.i6.i37, align 8
  br label %_ZN4llvh11raw_ostreamlsEPKc.exit49

_ZN4llvh11raw_ostreamlsEPKc.exit49:               ; preds = %if.then.i.i47, %if.then4.i.i44
  %12 = load ptr, ptr %OutBufEnd.i5.i, align 8
  %13 = load ptr, ptr %OutBufCur.i6.i, align 8
  %sub.ptr.lhs.cast.i7.i53 = ptrtoint ptr %12 to i64
  %sub.ptr.rhs.cast.i8.i54 = ptrtoint ptr %13 to i64
  %sub.ptr.sub.i9.i55 = sub i64 %sub.ptr.lhs.cast.i7.i53, %sub.ptr.rhs.cast.i8.i54
  %cmp.i.i56 = icmp ult i64 %sub.ptr.sub.i9.i55, 3
  br i1 %cmp.i.i56, label %if.then.i.i62, label %if.then4.i.i59

if.then.i.i62:                                    ; preds = %_ZN4llvh11raw_ostreamlsEPKc.exit49
  %call3.i.i63 = tail call noundef nonnull align 8 dereferenceable(36) ptr @_ZN4llvh11raw_ostream5writeEPKcm(ptr noundef nonnull align 8 dereferenceable(36) %call, ptr noundef nonnull @.str.116, i64 noundef 3) #27
  %.pre3 = load ptr, ptr %OutBufCur.i6.i, align 8
  br label %_ZN4llvh11raw_ostreamlsEPKc.exit64

if.then4.i.i59:                                   ; preds = %_ZN4llvh11raw_ostreamlsEPKc.exit49
  tail call void @llvm.memcpy.p0.p0.i64(ptr noundef nonnull align 1 dereferenceable(3) %13, ptr noundef nonnull align 1 dereferenceable(3) @.str.116, i64 3, i1 false)
  %14 = load ptr, ptr %OutBufCur.i6.i, align 8
  %add.ptr.i.i60 = getelementptr inbounds i8, ptr %14, i64 3
  store ptr %add.ptr.i.i60, ptr %OutBufCur.i6.i, align 8
  br label %_ZN4llvh11raw_ostreamlsEPKc.exit64

_ZN4llvh11raw_ostreamlsEPKc.exit64:               ; preds = %if.then.i.i62, %if.then4.i.i59
  %15 = phi ptr [ %.pre3, %if.then.i.i62 ], [ %add.ptr.i.i60, %if.then4.i.i59 ]
  %16 = load ptr, ptr %OutBufEnd.i5.i, align 8
  %sub.ptr.lhs.cast.i7.i68 = ptrtoint ptr %16 to i64
  %sub.ptr.rhs.cast.i8.i69 = ptrtoint ptr %15 to i64
  %sub.ptr.sub.i9.i70 = sub i64 %sub.ptr.lhs.cast.i7.i68, %sub.ptr.rhs.cast.i8.i69
  %cmp.i.i71 = icmp ult i64 %sub.ptr.sub.i9.i70, 11
  br i1 %cmp.i.i71, label %if.then.i.i77, label %if.then4.i.i74

if.then.i.i77:                                    ; preds = %_ZN4llvh11raw_ostreamlsEPKc.exit64
  %call3.i.i78 = tail call noundef nonnull align 8 dereferenceable(36) ptr @_ZN4llvh11raw_ostream5writeEPKcm(ptr noundef nonnull align 8 dereferenceable(36) %call, ptr noundef nonnull @.str.117, i64 noundef 11) #27
  %.pre4 = load ptr, ptr %OutBufCur.i6.i, align 8
  br label %_ZN4llvh11raw_ostreamlsEPKc.exit79

if.then4.i.i74:                                   ; preds = %_ZN4llvh11raw_ostreamlsEPKc.exit64
  tail call void @llvm.memcpy.p0.p0.i64(ptr noundef nonnull align 1 dereferenceable(11) %15, ptr noundef nonnull align 1 dereferenceable(11) @.str.117, i64 11, i1 false)
  %17 = load ptr, ptr %OutBufCur.i6.i, align 8
  %add.ptr.i.i75 = getelementptr inbounds i8, ptr %17, i64 11
  store ptr %add.ptr.i.i75, ptr %OutBufCur.i6.i, align 8
  br label %_ZN4llvh11raw_ostreamlsEPKc.exit79

_ZN4llvh11raw_ostreamlsEPKc.exit79:               ; preds = %if.then.i.i77, %if.then4.i.i74
  %18 = phi ptr [ %.pre4, %if.then.i.i77 ], [ %add.ptr.i.i75, %if.then4.i.i74 ]
  %19 = load ptr, ptr %OutBufEnd.i5.i, align 8
  %cmp.not.i = icmp ult ptr %18, %19
  br i1 %cmp.not.i, label %if.end.i, label %if.then.i

if.then.i:                                        ; preds = %_ZN4llvh11raw_ostreamlsEPKc.exit79
  %call.i = tail call noundef nonnull align 8 dereferenceable(36) ptr @_ZN4llvh11raw_ostream5writeEh(ptr noundef nonnull align 8 dereferenceable(36) %call, i8 noundef zeroext 10) #27
  br label %_ZN4llvh11raw_ostreamlsEc.exit

if.end.i:                                         ; preds = %_ZN4llvh11raw_ostreamlsEPKc.exit79
  %incdec.ptr.i = getelementptr inbounds i8, ptr %18, i64 1
  store ptr %incdec.ptr.i, ptr %OutBufCur.i6.i, align 8
  store i8 10, ptr %18, align 1
  br label %_ZN4llvh11raw_ostreamlsEc.exit

_ZN4llvh11raw_ostreamlsEc.exit:                   ; preds = %if.then.i, %if.end.i
  ret void
}